(dp0
S'Mu40_eta2p1_Tight'
p1
(dp2
S'pt_40abseta0.9-1.2_2012D'
p3
(dp4
S'40_50'
p5
(dp6
S'data/mc'
p7
(dp8
S'err_low'
p9
F0.0021339674452649574
sS'pt_40'
p10
F46.997914951377112
sS'efficiency_ratio'
p11
F0.96040644336113101
sS'err_hi'
p12
F0.002125272342879399
ssS'data'
p13
(dp14
S'efficiency'
p15
F0.83758830737553924
sg10
F47.002356234809149
sg12
F0.0014849568008414304
sg9
F0.0014915205858568692
ssS'mc'
p16
(dp17
g15
F0.87211858392394204
sg10
F46.993473667945075
sg12
F0.0011549286380279748
sg9
F0.0011589726679312844
sssS'140_500'
p18
(dp19
g7
(dp20
g9
F0.17469840181537016
sg10
F167.59555871435168
sg11
F1.0275004233262284
sg12
F0.05826597981829533
ssg13
(dp21
g15
F0.90715451510946288
sg10
F157.988147867137
sg12
F0.034879930871769244
sg9
F0.04567356215986379
ssg16
(dp22
g15
F0.88287507675453669
sg10
F177.20296956156636
sg12
F0.036798432443926589
sg9
F0.14337625670635121
sssS'60_90'
p23
(dp24
g7
(dp25
g9
F0.01296871587824143
sg10
F67.824129878175071
sg11
F0.9496297039991719
sg12
F0.01269177138710024
ssg13
(dp26
g15
F0.83379783233181159
sg10
F67.88452820324116
sg12
F0.0090791187279182957
sg9
F0.0092675097263076132
ssg16
(dp27
g15
F0.87802416965312058
sg10
F67.763731553108983
sg12
F0.0068042531489610671
sg9
F0.0069670907933301407
sssS'50_60'
p28
(dp29
g7
(dp30
g9
F0.0050138481263003014
sg10
F53.070885897114287
sg11
F0.9567060717584851
sg12
F0.0049690236606383066
ssg13
(dp31
g15
F0.83722593638489951
sg10
F53.093565635092844
sg12
F0.0034789078700881255
sg9
F0.0035095575493829696
ssg16
(dp32
g15
F0.87511301652557327
sg10
F53.048206159135731
sg12
F0.0027269451376635443
sg9
F0.0027525653827410921
sssS'90_140'
p33
(dp34
g7
(dp35
g9
F0.029038556901421785
sg10
F105.08436886499706
sg11
F0.94654725142352303
sg12
F0.025570379208623047
ssg13
(dp36
g15
F0.86193428781961201
sg10
F105.03383568297041
sg12
F0.019704786836066177
sg9
F0.020773830901132214
ssg16
(dp37
g15
F0.91060883281139882
sg10
F105.13490204702371
sg12
F0.013105976114825802
sg9
F0.017284459464141044
ssssS'pt_40abseta1.2-2.1_2012D'
p38
(dp39
S'40_50'
p40
(dp41
g7
(dp42
g9
F0.0017252156946058134
sg10
F47.015629131637716
sg11
F0.99644473392301258
sg12
F0.0017181604841253111
ssg13
(dp43
g15
F0.82663394725122341
sg10
F47.017061128469159
sg12
F0.0010913105931321032
sg9
F0.0010945370566458037
ssg16
(dp44
g15
F0.82958333674639184
sg10
F47.014197134806274
sg12
F0.00092015998003204373
sg9
F0.00092543508436863074
sssS'140_500'
p45
(dp46
g7
(dp47
g9
F0.085531370328544312
sg10
F167.91981044332312
sg11
F0.96394709302569292
sg12
F0.069423578728531568
ssg13
(dp48
g15
F0.82981228892491865
sg10
F169.95586772717928
sg12
F0.047635605650199336
sg9
F0.050637947969454429
ssg16
(dp49
g15
F0.86084837531928837
sg10
F165.88375315946692
sg12
F0.037439786186365787
sg9
F0.055451091248121795
sssS'60_90'
p50
(dp51
g7
(dp52
g9
F0.010569338724080448
sg10
F67.828363691010651
sg11
F0.98364698416495033
sg12
F0.010426775957093584
ssg13
(dp53
g15
F0.82820183968378691
sg10
F67.768177808442445
sg12
F0.0068315596652203962
sg9
F0.0069279375414628827
ssg16
(dp54
g15
F0.84197059820894404
sg10
F67.888549573578871
sg12
F0.0056054039748999378
sg9
F0.0056783001854496537
sssS'50_60'
p55
(dp56
g7
(dp57
g9
F0.0038825528658233445
sg10
F53.084667295444184
sg11
F0.9945123358960074
sg12
F0.0038616578942170894
ssg13
(dp58
g15
F0.82792635018752425
sg10
F53.098692153028487
sg12
F0.0024516096498271881
sg9
F0.0024652882710615828
ssg16
(dp59
g15
F0.83249480202938131
sg10
F53.070642437859881
sg12
F0.002091045647223354
sg9
F0.0021018700754265587
sssS'90_140'
p60
(dp61
g7
(dp62
g9
F0.024741392608947258
sg10
F104.9604814521511
sg11
F0.99177427739177304
sg12
F0.024421765820020844
ssg13
(dp63
g15
F0.82663946437326652
sg10
F105.30574917394375
sg12
F0.016059808626201814
sg9
F0.016265749195065467
ssg16
(dp64
g15
F0.8334955677084227
sg10
F104.61521373035846
sg12
F0.012610779692222629
sg9
F0.012781323240025429
ssssS'abseta_2p1pt45-500_2012D'
p65
(dp66
S'0.9_1.2'
p67
(dp68
g7
(dp69
g9
F0.0018703959601482278
sg11
F0.96044437614509648
sS'abseta_2p1'
p70
F1.0469177506354426
sg12
F0.0018619501805912642
ssg13
(dp71
g15
F0.83844383037808168
sg12
F0.0013026581531701365
sg70
F1.0467722999312203
sg9
F0.0013087946697192048
ssg16
(dp72
g15
F0.87297489704017606
sg12
F0.0010122131778515747
sg70
F1.0470632013396648
sg9
F0.0010164868456752853
sssS'1.2_2.1'
p73
(dp74
g7
(dp75
g9
F0.0014924126534088412
sg11
F0.99548830749439043
sg70
F1.5881607247521605
sg12
F0.0014919707160667892
ssg13
(dp76
g15
F0.82663844815552479
sg12
F0.00094677016285241253
sg70
F1.5860834111994637
sg9
F0.00094593672825006895
ssg16
(dp77
g15
F0.83038488943797351
sg12
F0.00080269855504804433
sg70
F1.5902380383048573
sg9
F0.00080426018855873688
sssS'0_0.9'
p78
(dp79
g7
(dp80
g9
F0.00057289193278345894
sg11
F0.98298574483880563
sg70
F0.44135702197534421
sg12
F0.00057078072623071446
ssg13
(dp81
g15
F0.94244724514880784
sg12
F0.00044118985181736576
sg70
F0.44096093059567759
sg9
F0.00044308621362184936
ssg16
(dp82
g15
F0.95875982952667793
sg12
F0.00032937076334286239
sg70
F0.44175311335501077
sg9
F0.0003302220800343855
ssssS'eta_2p1pt45-500_2012D'
p83
(dp84
S'-0.2_0.2'
p85
(dp86
g7
(dp87
S'eta_2p1'
p88
F-8.089432042567135e-05
sg11
F0.98853935934348758
sg12
F0.0011233614290521942
sg9
F0.0011354615530966877
ssg13
(dp89
g88
F-0.00025301598508095457
sg9
F0.00087140564360033124
sg12
F0.00086202712524954784
sg15
F0.95348012216632783
ssg16
(dp90
g88
F9.1227344229611869e-05
sg9
F0.00067108909431281964
sg12
F0.00066406024775529811
sg15
F0.96453430321637024
sssS'-2.1_-1.6'
p91
(dp92
g7
(dp93
g88
F-1.8287142685400093
sg11
F0.99874475964343978
sg12
F0.0037381497793784234
sg9
F0.003754895914372234
ssg13
(dp94
g88
F-1.8287976093011875
sg9
F0.0022812896075063024
sg12
F0.0022705401068024624
sg15
F0.79091205911647589
ssg16
(dp95
g88
F-1.8286309277788311
sg9
F0.0019096380837592001
sg12
F0.0019018103246425046
sg15
F0.79190609160125969
sssS'-1.2_-0.9'
p96
(dp97
g7
(dp98
g88
F-1.0471022735080484
sg11
F0.96207354952084012
sg12
F0.0027325081927637267
sg9
F0.0027487129333636832
ssg13
(dp99
g88
F-1.0470866251644293
sg9
F0.0019224366863447113
sg12
F0.0019113111858104993
sg15
F0.84043783849011544
ssg16
(dp100
g88
F-1.0471179218516673
sg9
F0.0014954511260192121
sg12
F0.00148634590092096
sg15
F0.87356921818367705
sssS'1.6_2.1'
p101
(dp102
g7
(dp103
g88
F1.8271446306268451
sg11
F1.0097366841930564
sg12
F0.0031943046648854026
sg9
F0.0032122157324744262
ssg13
(dp104
g88
F1.8263140939026816
sg9
F0.0020086489768818788
sg12
F0.0019965847946654533
sg15
F0.84172926162408368
ssg16
(dp105
g88
F1.8279751673510087
sg9
F0.0017536987021420486
sg12
F0.0017448904710837671
sg15
F0.83361263862247625
sssS'0.9_1.2'
p106
(dp107
g7
(dp108
g88
F1.0467310508675376
sg11
F0.95781646778207818
sg12
F0.0027656924215845066
sg9
F0.0027819958726603552
ssg13
(dp109
g88
F1.0464544276377905
sg9
F0.0019495916369054187
sg12
F0.0019384654819635217
sg15
F0.8356102116857228
ssg16
(dp110
g88
F1.0470076740972845
sg9
F0.0015092239315125289
sg12
F0.0014999580843189845
sg15
F0.87241161516116295
sssS'-0.3_-0.2'
p111
(dp112
g7
(dp113
g88
F-0.24948379559124131
sg11
F0.95581426469392861
sg12
F0.0037980667119650526
sg9
F0.00384416985839867
ssg13
(dp114
g88
F-0.24970401594370817
sg9
F0.0028883392852650349
sg12
F0.0028553500336044174
sg15
F0.87440976102828616
ssg16
(dp115
g88
F-0.24926357523877446
sg9
F0.0020990305042717498
sg12
F0.0020713684558425569
sg15
F0.91483229883401052
sssS'-0.6_-0.3'
p116
(dp117
g7
(dp118
g88
F-0.44872537011035085
sg11
F0.99101635480780337
sg12
F0.001190196645342873
sg9
F0.001206696885368636
ssg13
(dp119
g88
F-0.44887057252857315
sg9
F0.00093341459245075851
sg12
F0.00092069930101871329
sg15
F0.96203182373618334
ssg16
(dp120
g88
F-0.44858016769212861
sg9
F0.0007141766028076113
sg12
F0.00070434699330593317
sg15
F0.97075272175781468
sssS'1.2_1.6'
p121
(dp122
g7
(dp123
g88
F1.3908715353617642
sg11
F0.98048092052817504
sg12
F0.002899861645209
sg9
F0.0029143782485812845
ssg13
(dp124
g88
F1.3906787954619331
sg9
F0.0018993944283704194
sg12
F0.001889778648679948
sg15
F0.82329792150425796
ssg16
(dp125
g88
F1.3910642752615954
sg9
F0.0015737449916137201
sg12
F0.0015661004975231596
sg15
F0.83968785548703573
sssS'0.2_0.3'
p126
(dp127
g7
(dp128
g88
F0.24931642739895443
sg11
F0.95974783266297392
sg12
F0.0037173019979393428
sg9
F0.0037634403239391826
ssg13
(dp129
g88
F0.24927204805791001
sg9
F0.0027897208627692669
sg12
F0.0027568432499176787
sg15
F0.87747596597720512
ssg16
(dp130
g88
F0.24936080673999886
sg9
F0.0020986146902673888
sg12
F0.00207097543096256
sg15
F0.9142776218024975
sssS'0.6_0.9'
p131
(dp132
g7
(dp133
g88
F0.7477907730304556
sg11
F0.98258177428719062
sg12
F0.0015383906948471015
sg9
F0.0015561485616725559
ssg13
(dp134
g88
F0.74788276548536003
sg9
F0.0011986937635044101
sg12
F0.0011853080546733201
sg15
F0.93944974411850879
ssg16
(dp135
g88
F0.74769878057555106
sg9
F0.00089698522377105148
sg12
F0.00088634352073167723
sg15
F0.95610336839397236
sssS'-0.9_-0.6'
p136
(dp137
g7
(dp138
g88
F-0.74746355838060186
sg11
F0.97989451733753086
sg12
F0.0015579790587999657
sg9
F0.001574798854941559
ssg13
(dp139
g88
F-0.7477394644833173
sg9
F0.0012201759674700084
sg12
F0.0012074476218065652
sg15
F0.93633820152664671
ssg16
(dp140
g88
F-0.74718765227788642
sg9
F0.00089874602810635174
sg12
F0.0008887170803058025
sg15
F0.9555499953921256
sssS'-1.6_-1.2'
p141
(dp142
g7
(dp143
g88
F-1.3911582977275918
sg11
F0.99629896098501236
sg12
F0.0027238018037836391
sg9
F0.0027386336687497937
ssg13
(dp144
g88
F-1.3909026874877444
sg9
F0.0017782923999105887
sg12
F0.0017681877893085647
sg15
F0.84751730402877445
ssg16
(dp145
g88
F-1.3914139079674392
sg9
F0.0015105821767535889
sg12
F0.0015029628640806302
sg15
F0.85066565079106204
sssS'0.3_0.6'
p146
(dp147
g7
(dp148
g88
F0.44891023575110256
sg11
F0.98588285544409682
sg12
F0.0011971162223491949
sg9
F0.0012139865840959867
ssg13
(dp149
g88
F0.4484711280901576
sg9
F0.00096671488688616057
sg12
F0.00095357586071923115
sg15
F0.9591577949189023
ssg16
(dp150
g88
F0.44934934341204757
sg9
F0.00068824977166820681
sg12
F0.00067825876681505042
sg15
F0.9728922555275028
ssssS'pt_40abseta<0.9_2012D'
p151
(dp152
S'40_50'
p153
(dp154
g7
(dp155
g9
F0.00064700755566944775
sg10
F46.996814115639523
sg11
F0.98321555607613964
sg12
F0.00064287818988597375
ssg13
(dp156
g15
F0.94281209189571213
sg10
F46.999280456423932
sg12
F0.00049707109048844147
sg9
F0.00050069689744352652
ssg16
(dp157
g15
F0.95890680946742601
sg10
F46.994347774855115
sg12
F0.0003708386375709829
sg9
F0.00037261951036417223
sssS'140_500'
p158
(dp159
g7
(dp160
g9
F0.027371253303262535
sg10
F171.02435875537839
sg11
F0.9788845137689054
sg12
F0.024315898827929401
ssg13
(dp161
g15
F0.92387477615522906
sg10
F170.35461100995781
sg12
F0.018732265618319775
sg9
F0.021050835608900129
ssg16
(dp162
g15
F0.94380364911293002
sg10
F171.69410650079899
sg12
F0.013544149076470243
sg9
F0.015296666592265598
sssS'60_90'
p163
(dp164
g7
(dp165
g9
F0.0040199530976152871
sg10
F68.077669025758723
sg11
F0.9784492530511375
sg12
F0.0039258964725250485
ssg13
(dp166
g15
F0.93824679310958548
sg10
F68.108243959731681
sg12
F0.0030645313314923081
sg9
F0.0031351024684685897
ssg16
(dp167
g15
F0.95891206435470511
sg10
F68.04709409178578
sg12
F0.002234658445103864
sg9
F0.0022922717896971274
sssS'50_60'
p168
(dp169
g7
(dp170
g9
F0.0015794586584958175
sg10
F53.082806569288422
sg11
F0.98191596991684427
sg12
F0.0015634011401569605
ssg13
(dp171
g15
F0.94138960077172462
sg10
F53.104474181189353
sg12
F0.0012024247757343332
sg9
F0.0012142792247795532
ssg16
(dp172
g15
F0.9587272532612422
sg10
F53.061138957387492
sg12
F0.00091135627398629664
sg9
F0.00092139440869730806
sssS'90_140'
p173
(dp174
g7
(dp175
g9
F0.0097357674879146993
sg10
F105.49231296729296
sg11
F0.97623540102263628
sg12
F0.0092981039094777954
ssg13
(dp176
g15
F0.931218379845838
sg10
F105.35615342340702
sg12
F0.0071915773279353622
sg9
F0.0075767778297942592
ssg16
(dp177
g15
F0.95388712483726612
sg10
F105.6284725111789
sg12
F0.0053173606116229139
sg9
F0.0055007819710636598
ssssS'vtxpt45-500_2012D'
p178
(dp179
S'4.5_6.5'
p180
(dp181
g7
(dp182
S'vtx'
p183
F5.6214915667964407
sg11
F0.98686377462532271
sg12
F0.0030200002727638954
sg9
F0.0030679740866851875
ssg13
(dp184
g183
F5.632923918737994
sg9
F0.0022945906742734383
sg12
F0.0022546290587012251
sg15
F0.91104347106513028
ssg16
(dp185
g183
F5.6100592148548873
sg9
F0.0016823916277525837
sg12
F0.0016617845770091713
sg15
F0.92317044610439902
sssS'20.5_22.5'
p186
(dp187
g7
(dp188
g183
F21.449765809754311
sg11
F0.97873486065425774
sg12
F0.0026672405700648872
sg9
F0.0026809560487239389
ssg13
(dp189
g183
F21.442445106604566
sg9
F0.001881048076203636
sg12
F0.0018747622265052593
sg15
F0.87214925882885341
ssg16
(dp190
g183
F21.457086512904056
sg9
F0.001504737680519703
sg12
F0.0014926740833077832
sg15
F0.89109859461411767
sssS'16.5_18.5'
p191
(dp192
g7
(dp193
g183
F17.475679483525283
sg11
F0.9810123189656248
sg12
F0.0018715771428953003
sg9
F0.0018826562461899206
ssg13
(dp194
g183
F17.47510158792041
sg9
F0.0013050811983487526
sg12
F0.0012974867518257937
sg15
F0.88223557837057842
ssg16
(dp195
g183
F17.476257379130157
sg9
F0.0010994544251330366
sg12
F0.0010928785799047532
sg15
F0.89931141670147818
sssS'12.5_14.5'
p196
(dp197
g7
(dp198
g183
F13.498607096751535
sg11
F0.98393496775953548
sg12
F0.0015736849177494855
sg9
F0.0015829550777087813
ssg13
(dp199
g183
F13.500657699828169
sg9
F0.0011087509050963008
sg12
F0.0011011551986597542
sg15
F0.89388170453054161
ssg16
(dp200
g183
F13.496556493674898
sg9
F0.00093077933275752928
sg12
F0.00092668346042737112
sg15
F0.90847640730357493
sssS'22.5_24.5'
p201
(dp202
g7
(dp203
g183
F23.442076106312719
sg11
F0.98100759691652362
sg12
F0.0033992864026845936
sg9
F0.0034327695228753906
ssg13
(dp204
g183
F23.428149980966882
sg9
F0.0024434019260658828
sg12
F0.0024201519620394314
sg15
F0.86948585658082123
ssg16
(dp205
g183
F23.456002231658555
sg9
F0.001848044688420187
sg12
F0.0018292178393429211
sg15
F0.88631918785722508
sssS'2.5_4.5'
p206
(dp207
g7
(dp208
g183
F3.707440338223349
sg11
F0.98431412977440336
sg12
F0.0057143895417817499
sg9
F0.0058735117339371963
ssg13
(dp209
g183
F3.7272946278005299
sg9
F0.0046007548157178998
sg12
F0.0044662918769345639
sg15
F0.91215073170859118
ssg16
(dp210
g183
F3.687586048646168
sg9
F0.002954656337404893
sg12
F0.0028903347348682986
sg15
F0.92668661773416638
sssS'24.5_26.5'
p211
(dp212
g7
(dp213
g183
F25.429462195809254
sg11
F0.97701963453256313
sg12
F0.0045396838874286393
sg9
F0.004588916691392741
ssg13
(dp214
g183
F25.420179021465195
sg9
F0.0033781446164328779
sg12
F0.0033403523818037397
sg15
F0.86304072726696135
ssg16
(dp215
g183
F25.438745370153313
sg9
F0.002293145077746615
sg12
F0.0022709320240360729
sg15
F0.88334020808073843
sssS'18.5_20.5'
p216
(dp217
g7
(dp218
g183
F19.461587376074895
sg11
F0.97716160324854462
sg12
F0.0021604197091345473
sg9
F0.002172260104761071
ssg13
(dp219
g183
F19.455573029290349
sg9
F0.0015212767659937775
sg12
F0.0015127325011112527
sg15
F0.87804992571943585
ssg16
(dp220
g183
F19.467601722859442
sg9
F0.0012515949782630801
sg12
F0.0012450938482007545
sg15
F0.89857186651663867
sssS'14.5_16.5'
p221
(dp222
g7
(dp223
g183
F15.483789316712024
sg11
F0.98205227564190589
sg12
F0.0016722899388737882
sg9
F0.0016813783361211809
ssg13
(dp224
g183
F15.485307650610762
sg9
F0.0011703483490592575
sg12
F0.0011632752326791995
sg15
F0.88831243282089356
ssg16
(dp225
g183
F15.482270982813283
sg9
F0.0009890273254981952
sg12
F0.00098459714796080033
sg15
F0.90454699291874208
sssS'0.5_2.5'
p226
(dp227
g7
(dp228
g183
F1.8608132152859531
sg11
F0.99233525050887561
sg12
F0.019886061241649523
sg9
F0.02178216284799005
ssg13
(dp229
g183
F1.8700564971751412
sg9
F0.017764380257058978
sg12
F0.016094707082642601
sg15
F0.90705833113667533
ssg16
(dp230
g183
F1.851569933396765
sg9
F0.0090609363287774015
sg12
F0.0085132606442319039
sg15
F0.91406440582608572
sssS'8.5_10.5'
p231
(dp232
g7
(dp233
g183
F9.5356157801991834
sg11
F0.98843442569401929
sg12
F0.0017175330884036967
sg9
F0.0017300765393410832
ssg13
(dp234
g183
F9.5380023501762636
sg9
F0.0012183257880811109
sg12
F0.0012099587370788065
sg15
F0.90450989826963313
ssg16
(dp235
g183
F9.5332292102221015
sg9
F0.0010228425017887502
sg12
F0.0010148581550905715
sg15
F0.91509347990843259
sssS'28.5_30.5'
p236
(dp237
g7
(dp238
g183
F29.416772008243846
sg11
F0.94473224248970644
sg12
F0.0095738131699736571
sg9
F0.0097888436231001949
ssg13
(dp239
g183
F29.393688362919132
sg9
F0.0078033848004468807
sg12
F0.0076237877034475822
sg15
F0.83374253296412681
ssg16
(dp240
g183
F29.439855653568564
sg9
F0.0039230937066474583
sg12
F0.0038550950733199185
sg15
F0.88251728422745246
sssS'10.5_12.5'
p241
(dp242
g7
(dp243
g183
F11.514669342022659
sg11
F0.98782385899367242
sg12
F0.0015821261803853324
sg9
F0.0015923940287416462
ssg13
(dp244
g183
F11.517371269289203
sg9
F0.0011150187072262601
sg12
F0.0011078383485260833
sg15
F0.90019305305747954
ssg16
(dp245
g183
F11.511967414756114
sg9
F0.00094016448724905572
sg12
F0.00093409089314441265
sg15
F0.91128903686790363
sssS'26.5_28.5'
p246
(dp247
g7
(dp248
g183
F27.417760918868982
sg11
F0.97434947136702577
sg12
F0.0061837475895324834
sg9
F0.0062786424664054152
ssg13
(dp249
g183
F27.402799650043743
sg9
F0.0048017570868274751
sg12
F0.0047177783281997501
sg15
F0.86366218587854959
ssg16
(dp250
g183
F27.432722187694221
sg9
F0.0028877158778336594
sg12
F0.002863954433648219
sg15
F0.88639878324849875
sssS'6.5_8.5'
p251
(dp252
g7
(dp253
g183
F7.5719467559834026
sg11
F0.99206624048346947
sg12
F0.0020964288311812154
sg9
F0.0021159713029674536
ssg13
(dp254
g183
F7.5797280593325089
sg9
F0.0015073832606556971
sg12
F0.0014930164753508004
sg15
F0.91039705055629794
ssg16
(dp255
g183
F7.5641654526342963
sg9
F0.0012338412450210569
sg12
F0.001222998100085538
sg15
F0.91767768461975763
sssssS'IsoMu24_eta2p1_TightIso'
p256
(dp257
S'ptabseta0.9-1.2_2012D'
p258
(dp259
S'25_30'
p260
(dp261
g7
(dp262
g9
F0.0039295292214824992
sg11
F0.96261309489587965
sS'pt'
p263
F27.732237191073992
sg12
F0.0039150467122432073
ssg13
(dp264
g15
F0.77925808382998707
sg12
F0.0024759302894607148
sg263
F27.722820363777274
sg9
F0.0024844438781407656
ssg16
(dp265
g15
F0.80952366839999712
sg12
F0.002055320616220541
sg263
F27.74165401837071
sg9
F0.0020637623438304119
sssS'140_500'
p266
(dp267
g7
(dp268
g9
F0.037621730879919629
sg11
F0.99289045846971669
sg263
F170.94996441950474
sg12
F0.034047432416510044
ssg13
(dp269
g15
F0.86717081775647897
sg12
F0.022613216848119684
sg263
F167.47386867595168
sg9
F0.025031258689728171
ssg16
(dp270
g15
F0.87338015020609427
sg12
F0.01944870984458788
sg263
F174.42606016305777
sg9
F0.021438304979014482
sssS'30_35'
p271
(dp272
g7
(dp273
g9
F0.0028917465174494511
sg11
F0.95900676188305922
sg263
F32.675843942255185
sg12
F0.0028826197641733985
ssg13
(dp274
g15
F0.79766872358310059
sg12
F0.0018854951316074578
sg263
F32.676266966789306
sg9
F0.0018913074490355213
ssg16
(dp275
g15
F0.83176548413155804
sg12
F0.0015444250796250859
sg263
F32.67542091772107
sg9
F0.0015495238597603457
sssS'60_90'
p276
(dp277
g7
(dp278
g9
F0.0045338834116438118
sg11
F0.95672179799515245
sg263
F68.692664377919769
sg12
F0.0045008915161213444
ssg13
(dp279
g15
F0.83287925018509523
sg12
F0.0031199695684377728
sg263
F68.672759733856935
sg9
F0.0031414929422184418
ssg16
(dp280
g15
F0.8705553191433768
sg12
F0.002477599274396143
sg263
F68.712569021982603
sg9
F0.0024976113362983263
sssS'50_60'
p281
(dp282
g7
(dp283
g9
F0.0029778291697058414
sg11
F0.96029757743629218
sg263
F53.733131296086455
sg12
F0.0029620477233797118
ssg13
(dp284
g15
F0.83549093139196562
sg12
F0.0020440124795955026
sg263
F53.740751826179469
sg9
F0.0020545765060619066
ssg16
(dp285
g15
F0.87003336363971362
sg12
F0.0016343977809621312
sg263
F53.725510765993434
sg9
F0.0016435479975636014
sssS'90_140'
p286
(dp287
g7
(dp288
g9
F0.014870736802545031
sg11
F0.9623387481411757
sg263
F104.24380586269538
sg12
F0.014502317240007626
ssg13
(dp289
g15
F0.83736411029274926
sg12
F0.009861410879040149
sg263
F103.99468345837715
sg9
F0.010095602700813429
ssg16
(dp290
g15
F0.87013446347263512
sg12
F0.0081815563324110583
sg263
F104.49292826701362
sg9
F0.0084106108639846276
sssS'40_50'
p291
(dp292
g7
(dp293
g9
F0.0012519048627461281
sg11
F0.96293779887804887
sg263
F44.336496802916571
sg12
F0.0012496849632170402
ssg13
(dp294
g15
F0.82926676260053078
sg12
F0.00085463897448258416
sg263
F44.332140082868357
sg9
F0.00085637552237222722
ssg16
(dp295
g15
F0.86118414249262754
sg12
F0.00067925238395706675
sg263
F44.340853522964792
sg9
F0.00068016253802947546
sssS'35_40'
p296
(dp297
g7
(dp298
g9
F0.002195247383850036
sg11
F0.96179985528446077
sg263
F37.680569089610266
sg12
F0.0021886297596684532
ssg13
(dp299
g15
F0.81259200632027206
sg12
F0.0014528218654985756
sg263
F37.675764387995571
sg9
F0.0014568664502917382
ssg16
(dp300
g15
F0.8448660101741654
sg12
F0.001189318197857416
sg263
F37.685373791224961
sg9
F0.0011933739569600201
ssssS'ptabseta1.2-2.1_2012D'
p301
(dp302
S'25_30'
p303
(dp304
g7
(dp305
g9
F0.0025460048398088719
sg11
F1.0047243862175275
sg263
F27.682372708853407
sg12
F0.0025421804311439788
ssg13
(dp306
g15
F0.76047269378918947
sg12
F0.0014413199898291994
sg263
F27.674821522721388
sg9
F0.0014435308308347904
ssg16
(dp307
g15
F0.75689682088053112
sg12
F0.0012687686801471768
sg263
F27.689923894985427
sg9
F0.0012706295114369105
sssS'140_500'
p308
(dp309
g7
(dp310
g9
F0.040781109792725333
sg11
F0.94409610419248469
sg263
F169.44053256139983
sg12
F0.03915721520872615
ssg13
(dp311
g15
F0.7858387618577185
sg12
F0.025374568676918317
sg263
F169.32700108007057
sg9
F0.02634330910772173
ssg16
(dp312
g15
F0.83237157569871689
sg12
F0.021667544146323568
sg263
F169.5540640427291
sg9
F0.022675487203115043
sssS'30_35'
p313
(dp314
g7
(dp315
g9
F0.0019852404459558166
sg11
F1.0019383989167374
sg263
F32.620744428750619
sg12
F0.0019821971393773671
ssg13
(dp316
g15
F0.78276718587774119
sg12
F0.0011617755209771747
sg263
F32.620961290204406
sg9
F0.0011635987803523215
ssg16
(dp317
g15
F0.78125280628434157
sg12
F0.0010219480331243402
sg263
F32.620527567296833
sg9
F0.0010234722468407129
sssS'60_90'
p318
(dp319
g7
(dp320
g9
F0.0036072104737469349
sg11
F0.98379899771732682
sg263
F68.684030353175274
sg12
F0.0035900842092497962
ssg13
(dp321
g15
F0.8172022413805845
sg12
F0.0022916842538921582
sg263
F68.665415212753942
sg9
F0.0023032707207219301
ssg16
(dp322
g15
F0.83065976208220305
sg12
F0.0019396520943275274
sg263
F68.702645493596592
sg9
F0.0019481062820540501
sssS'50_60'
p323
(dp324
g7
(dp325
g9
F0.0023910677931727117
sg11
F0.99109764417153334
sg263
F53.744922406941107
sg12
F0.002383366530969413
ssg13
(dp326
g15
F0.81859980529061471
sg12
F0.0014998140032758209
sg263
F53.752118266938488
sg9
F0.0015051041260501041
ssg16
(dp327
g15
F0.82595273039407635
sg12
F0.0012864977830373534
sg263
F53.737726546943726
sg9
F0.0012901278239541268
sssS'90_140'
p328
(dp329
g7
(dp330
g9
F0.012173910417085737
sg11
F0.98342842226423999
sg263
F104.12424994645903
sg12
F0.011993403076338283
ssg13
(dp331
g15
F0.81796574926712773
sg12
F0.0077215129630269141
sg263
F104.21411738694961
sg9
F0.0078324135352014872
ssg16
(dp332
g15
F0.83174914487812757
sg12
F0.0064221912532682161
sg263
F104.03438250596845
sg9
F0.0065254475429294759
sssS'40_50'
p333
(dp334
g7
(dp335
g9
F0.0010073667951948028
sg11
F0.99658256171319515
sg263
F44.327591920974982
sg12
F0.001005524945783521
ssg13
(dp336
g15
F0.81402046790100169
sg12
F0.00062779743394448205
sg263
F44.321942361050496
sg9
F0.0006278009700771914
ssg16
(dp337
g15
F0.81681187206571582
sg12
F0.00053138624579649602
sg263
F44.333241480899467
sg9
F0.00053372034188127536
sssS'35_40'
p338
(dp339
g7
(dp340
g9
F0.0016253110660227157
sg11
F0.99821177731560617
sg263
F37.605573038887783
sg12
F0.0016227869401149063
ssg13
(dp341
g15
F0.79561694312008657
sg12
F0.00097733612735765056
sg263
F37.602536323239761
sg9
F0.00097887854335046453
ssg16
(dp342
g15
F0.79704223211998337
sg12
F0.00084873348665391081
sg263
F37.608609754535806
sg9
F0.00085002792522703794
ssssS'abseta_2p1pt25-500_2012D'
p343
(dp344
S'0.9_1.2'
p345
(dp346
g7
(dp347
g9
F0.00091387917393648819
sg11
F0.96156099803202788
sg70
F1.0469788873907415
sg12
F0.00091260749231750248
ssg13
(dp348
g15
F0.81796596711945935
sg12
F0.00061206783569772271
sg70
F1.0470638795306764
sg9
F0.0006132460103308717
ssg16
(dp349
g15
F0.85066466796546836
sg12
F0.00049663631333324504
sg70
F1.0468938952508064
sg9
F0.0004968944722686066
sssS'1.2_2.1'
p350
(dp351
g7
(dp352
g9
F0.00069437252400390078
sg11
F0.99720603541182018
sg70
F1.6139184483223006
sg12
F0.00069341450941860078
ssg13
(dp353
g15
F0.79944711778667199
sg12
F0.00041973345567866542
sg70
F1.6120834487332238
sg9
F0.00042023239873868854
ssg16
(dp354
g15
F0.80168700288353256
sg12
F0.00036550741822131689
sg70
F1.6157534479113773
sg9
F0.00036610586744349895
sssS'0_0.9'
p355
(dp356
g7
(dp357
g9
F0.00032548955763902105
sg11
F0.98150760278913973
sg70
F0.43887051013251083
sg12
F0.00032502896656928305
ssg13
(dp358
g15
F0.91403179988007965
sg12
F0.00023952819088769853
sg70
F0.43898473612591354
sg9
F0.00023982963135962807
ssg16
(dp359
g15
F0.93125289838070047
sg12
F0.00018853772588407617
sg70
F0.43875628413910811
sg9
F0.00018885498727565938
ssssS'ptabseta<0.9_2012D'
p360
(dp361
S'25_30'
p362
(dp363
g7
(dp364
g9
F0.001806929370962707
sg11
F0.97914496622610225
sg263
F27.813104066582664
sg12
F0.0018008858554421543
ssg13
(dp365
g15
F0.86245822401106143
sg12
F0.0012388011724586232
sg263
F27.808470082323915
sg9
F0.0012428285484931282
ssg16
(dp366
g15
F0.88082792003232768
sg12
F0.0010118729964922076
sg263
F27.817738050841413
sg9
F0.0010154345077447665
sssS'140_500'
p367
(dp368
g7
(dp369
g9
F0.014073601453910352
sg11
F0.98601151721013425
sg263
F172.55711605802296
sg12
F0.013062714238057683
ssg13
(dp370
g15
F0.93168061869250551
sg12
F0.010359447451161852
sg263
F170.61842957270443
sg9
F0.011137143142241929
ssg16
(dp371
g15
F0.94489831247473144
sg12
F0.0068056351762436065
sg263
F174.49580254334148
sg9
F0.0073697342559298426
sssS'30_35'
p372
(dp373
g7
(dp374
g9
F0.0011229899299581472
sg11
F0.98019485553878438
sg263
F32.733875169673809
sg12
F0.0011196120617616768
ssg13
(dp375
g15
F0.89214724220538222
sg12
F0.00079757511945177705
sg263
F32.731892454245191
sg9
F0.00079999871824240523
ssg16
(dp376
g15
F0.91017335702603241
sg12
F0.0006471018663091315
sg263
F32.735857885102433
sg9
F0.00064903195792494043
sssS'60_90'
p377
(dp378
g7
(dp379
g9
F0.0014806677503566158
sg11
F0.98526154045830983
sg263
F68.707047767690966
sg12
F0.0014681423182645698
ssg13
(dp380
g15
F0.93548542671837198
sg12
F0.0010994503800812714
sg263
F68.696133736032948
sg9
F0.0011087169712231172
ssg16
(dp381
g15
F0.94947928880205379
sg12
F0.0008697690200275283
sg263
F68.717961799348998
sg9
F0.00087733702373399736
sssS'50_60'
p382
(dp383
g7
(dp384
g9
F0.00099558740718984763
sg11
F0.98179265165696761
sg263
F53.770642891181097
sg12
F0.00099006266924005432
ssg13
(dp385
g15
F0.93174278892929929
sg12
F0.0007475376666314518
sg263
F53.788898103554914
sg9
F0.00075164614119611276
ssg16
(dp386
g15
F0.94902196238360581
sg12
F0.00057978306179663243
sg263
F53.752387678807281
sg9
F0.00058310252443008719
sssS'90_140'
p387
(dp388
g7
(dp389
g9
F0.0050279411182655599
sg11
F0.98529848220688254
sg263
F104.52299359642649
sg12
F0.0048957147462200925
ssg13
(dp390
g15
F0.93232953992966272
sg12
F0.0036659710651759021
sg263
F104.58070326588395
sg9
F0.0037637564951523358
ssg16
(dp391
g15
F0.94624071463240322
sg12
F0.002874384310876079
sg263
F104.46528392696904
sg9
F0.0029536290294386652
sssS'40_50'
p392
(dp393
g7
(dp394
g9
F0.00036329303125574918
sg11
F0.98231741596833355
sg263
F44.324971755653578
sg12
F0.078803443945036702
ssg13
(dp395
g15
F0.92573603595179144
sg12
F0.074263964048208564
sg263
F44.323695856255931
sg9
F0.00023825889796493099
ssg16
(dp396
g15
F0.94240010499990357
sg12
F0.00025115322900411645
sg263
F44.326247655051233
sg9
F0.00025028774378351571
sssS'35_40'
p397
(dp398
g7
(dp399
g9
F0.00076461153531109168
sg11
F0.98121815376364718
sg263
F37.665688648425622
sg12
F0.0007626607730832082
ssg13
(dp400
g15
F0.91098578866380686
sg12
F0.00055816945131478466
sg263
F37.664769975174266
sg9
F0.00055956806844881712
ssg16
(dp401
g15
F0.92842329217977593
sg12
F0.00044401458776707753
sg263
F37.666607321676977
sg9
F0.00044518828398898343
ssssS'eta_2p1pt25-500_2012D'
p402
(dp403
S'-0.2_0.2'
p404
(dp405
g7
(dp406
g88
F7.2643703119105123e-05
sg11
F0.98456616599754987
sg12
F0.0006493697086642086
sg9
F0.00065184044108601905
ssg13
(dp407
g88
F0.00011150530844229853
sg9
F0.00047870302719790167
sg12
F0.00047674265646440182
sg15
F0.92097194050178099
ssg16
(dp408
g88
F3.3782097795911719e-05
sg9
F0.00038357468044099871
sg12
F0.00038230854013927439
sg15
F0.93540888597229421
sssS'-2.1_-1.6'
p409
(dp410
g7
(dp411
g88
F-1.8405852115679104
sg11
F0.99632539268434883
sg12
F0.0015843933689626971
sg9
F0.0015870628696810388
ssg13
(dp412
g88
F-1.8401692501677296
sg9
F0.00091505130632780335
sg12
F0.00091370814122951219
sg15
F0.75652924979734182
ssg16
(dp413
g88
F-1.8410011729680913
sg9
F0.00078705887900890493
sg12
F0.00078550541583520344
sg15
F0.75931945060545281
sssS'-1.2_-0.9'
p414
(dp415
g7
(dp416
g88
F-1.0471602111291709
sg11
F0.96140309419421466
sg12
F0.0012794687767446128
sg9
F0.0012827267425310229
ssg13
(dp417
g88
F-1.0473751133185845
sg9
F0.00086521282698275503
sg12
F0.00086327947873174717
sg15
F0.8204439102795682
ssg16
(dp418
g88
F-1.0469453089397573
sg9
F0.00069750159338971757
sg12
F0.00069537533480126161
sg15
F0.85338180752082016
sssS'1.6_2.1'
p419
(dp420
g7
(dp421
g88
F1.8395695692140412
sg11
F1.0164575482501068
sg12
F0.001395553588426856
sg9
F0.0013982375300990928
ssg13
(dp422
g88
F1.8391391589875883
sg9
F0.00082907916949096654
sg12
F0.00082735987999295606
sg15
F0.81287788312719056
ssg16
(dp423
g88
F1.8399999794404944
sg9
F0.00073817454875203087
sg12
F0.0007368965760114715
sg15
F0.79971651007620448
sssS'0.9_1.2'
p424
(dp425
g7
(dp426
g88
F1.0467969428155848
sg11
F0.96232218925214463
sg12
F0.0012936296008821029
sg9
F0.0012966178829137268
ssg13
(dp427
g88
F1.0467512205823275
sg9
F0.00087031660717254791
sg12
F0.0008683582900117265
sg15
F0.81768973573760395
ssg16
(dp428
g88
F1.0468426650488418
sg9
F0.00070201324565713919
sg12
F0.00070033176750254091
sg15
F0.84970475051922079
sssS'-0.3_-0.2'
p429
(dp430
g7
(dp431
g88
F-0.24935996565080751
sg11
F0.94710997117671769
sg12
F0.0018242763025565129
sg9
F0.0018318017627366359
ssg13
(dp432
g88
F-0.24933858163401501
sg9
F0.0013301876077045957
sg12
F0.0013249768534301218
sg15
F0.84392483889787973
ssg16
(dp433
g88
F-0.24938134966760001
sg9
F0.00099875301501747078
sg12
F0.0009942727335940729
sg15
F0.89105263863853357
sssS'-0.6_-0.3'
p434
(dp435
g7
(dp436
g88
F-0.44855799074525715
sg11
F0.98735148854440347
sg12
F0.00070598121587547348
sg9
F0.00070967107218088187
ssg13
(dp437
g88
F-0.44855156054231082
sg9
F0.00052688258308198005
sg12
F0.00052397994519627546
sg15
F0.93319904206688498
ssg16
(dp438
g88
F-0.44856442094820353
sg9
F0.0004204055303498239
sg12
F0.00041842936261984735
sg15
F0.94515383112719831
sssS'1.2_1.6'
p439
(dp440
g7
(dp441
g88
F1.3934802605608727
sg11
F0.97856016783562882
sg12
F0.0013164688645861313
sg9
F0.001319280156110027
ssg13
(dp442
g88
F1.3933228168795542
sg9
F0.00083395751846228555
sg12
F0.00083228148927317681
sg15
F0.80371346110977371
ssg16
(dp443
g88
F1.3936377042421912
sg9
F0.00070697022737625044
sg12
F0.00070533919437407568
sg15
F0.82132247717319251
sssS'0.2_0.3'
p444
(dp445
g7
(dp446
g88
F0.24942004710709248
sg11
F0.95914178915735715
sg12
F0.0018250322602310269
sg9
F0.0018328237466515927
ssg13
(dp447
g88
F0.24936470639918179
sg9
F0.001303009299404739
sg12
F0.0012977292070334326
sg15
F0.85085363861641983
ssg16
(dp448
g88
F0.2494753878150032
sg9
F0.0010138994686048309
sg12
F0.0010092272294298997
sg15
F0.88709891304384447
sssS'0.6_0.9'
p449
(dp450
g7
(dp451
g88
F0.74731166193349641
sg11
F0.98576593238330212
sg12
F0.00081824249713780299
sg9
F0.00082144522587376681
ssg13
(dp452
g88
F0.74691871594048753
sg9
F0.00059709822755990441
sg12
F0.00059511634945426958
sg15
F0.91733058934758493
ssg16
(dp453
g88
F0.74770460792650528
sg9
F0.0004841842553316642
sg12
F0.00048185685907246027
sg15
F0.93057647785589426
sssS'-0.9_-0.6'
p454
(dp455
g7
(dp456
g88
F-0.74745557247680772
sg11
F0.98073788859981015
sg12
F0.00082046581429465074
sg9
F0.00082354476088900583
ssg13
(dp457
g88
F-0.74740324887893761
sg9
F0.0006075788069692796
sg12
F0.00060532862209064606
sg15
F0.91440751279251975
ssg16
(dp458
g88
F-0.74750789607467794
sg9
F0.00047872660005619647
sg12
F0.0004769086483874028
sg15
F0.93236686725544005
sssS'-1.6_-1.2'
p459
(dp460
g7
(dp461
g88
F-1.3931780511437348
sg11
F0.99670939401174052
sg12
F0.001259405241690673
sg9
F0.0012625621845530897
ssg13
(dp462
g88
F-1.3930118294489715
sg9
F0.00079057125406832704
sg12
F0.00078873272178043663
sg15
F0.82681688522780949
ssg16
(dp463
g88
F-1.3933442728384984
sg9
F0.00068925265437539687
sg12
F0.00068736959600979172
sg15
F0.82954659622488736
sssS'0.3_0.6'
p464
(dp465
g7
(dp466
g88
F0.44865175102527133
sg11
F0.98561253510680447
sg12
F0.00071103931700470233
sg9
F0.00071473533960337882
ssg13
(dp467
g88
F0.44862215347713286
sg9
F0.00053215026970793112
sg12
F0.00052894209572861375
sg15
F0.93103336657653191
ssg16
(dp468
g88
F0.4486813485734098
sg9
F0.00042157964205289522
sg12
F0.00041999186116864219
sg15
F0.94462411283724368
sssss.